target datalayout = "e-m:e-p270:32:32-p271:32:32-p272:64:64-i64:64-i128:128-f80:128-n8:16:32:64-S128"
target triple = "x86_64-pc-linux-gnu"

@.str = private unnamed_addr constant [39 x i8] c"argument provided is NULL or corrupted\00", align 1
@.str.1 = private unnamed_addr constant [36 x i8] c"argument provided is not compatible\00", align 1
@.str.2 = private unnamed_addr constant [35 x i8] c"argument is out of the valid range\00", align 1
@.str.3 = private unnamed_addr constant [40 x i8] c"argument provided is not the right type\00", align 1
@.str.4 = private unnamed_addr constant [33 x i8] c"argument dimensions do not agree\00", align 1
@.str.5 = private unnamed_addr constant [18 x i8] c"an error occurred\00", align 1
@.str.6 = private unnamed_addr constant [25 x i8] c"value is NULL or corrupt\00", align 1
@.str.7 = private unnamed_addr constant [35 x i8] c"Value is out of the expected range\00", align 1
@.str.8 = private unnamed_addr constant [20 x i8] c"Unable to open file\00", align 1
@.str.9 = private unnamed_addr constant [20 x i8] c"an operation failed\00", align 1
@.str.10 = private unnamed_addr constant [26 x i8] c"a memory operation failed\00", align 1
@.str.11 = private unnamed_addr constant [21 x i8] c"malloc returned NULL\00", align 1
@.str.12 = private unnamed_addr constant [42 x i8] c"a failure occurred in an external library\00", align 1
@.str.13 = private unnamed_addr constant [37 x i8] c"a destroy function returned an error\00", align 1
@.str.14 = private unnamed_addr constant [55 x i8] c"operation is not implemented: function pointer is NULL\00", align 1
@.str.15 = private unnamed_addr constant [43 x i8] c"the user provided callback function failed\00", align 1
@.str.16 = private unnamed_addr constant [64 x i8] c"the number of profiler entries exceeded SUNPROFILER_MAX_ENTRIES\00", align 1
@.str.17 = private unnamed_addr constant [40 x i8] c"unknown error getting SUNProfiler timer\00", align 1
@.str.18 = private unnamed_addr constant [42 x i8] c"unknown error inserting SUNProfiler timer\00", align 1
@.str.19 = private unnamed_addr constant [35 x i8] c"timer was not found in SUNProfiler\00", align 1
@.str.20 = private unnamed_addr constant [30 x i8] c"error sorting SUNProfiler map\00", align 1
@.str.21 = private unnamed_addr constant [30 x i8] c"SUNContext is NULL or corrupt\00", align 1
@.str.22 = private unnamed_addr constant [54 x i8] c"an MPI call returned something other than MPI_SUCCESS\00", align 1
@.str.23 = private unnamed_addr constant [92 x i8] c"Reached code that should be unreachable: open an issue at: https://github.com/LLNL/sundials\00", align 1
@.str.24 = private unnamed_addr constant [74 x i8] c"Unknown error occurred: open an issue at https://github.com/LLNL/sundials\00", align 1
@.str.25 = private unnamed_addr constant [14 x i8] c"unknown error\00", align 1

; Function Attrs: nounwind uwtable
define ptr @SUNGetErrMsg(i32 noundef %0) #0 {
  %2 = alloca ptr, align 8
  %3 = alloca i32, align 4
  store i32 %0, ptr %3, align 4, !tbaa !15
  %4 = load i32, ptr %3, align 4, !tbaa !15
  switch i32 %4, label %30 [
    i32 -9999, label %5
    i32 -9998, label %6
    i32 -9997, label %7
    i32 -9996, label %8
    i32 -9995, label %9
    i32 -9994, label %10
    i32 -9993, label %11
    i32 -9992, label %12
    i32 -9991, label %13
    i32 -9990, label %14
    i32 -9989, label %15
    i32 -9988, label %16
    i32 -9987, label %17
    i32 -9986, label %18
    i32 -9985, label %19
    i32 -9984, label %20
    i32 -9983, label %21
    i32 -9982, label %22
    i32 -9981, label %23
    i32 -9980, label %24
    i32 -9979, label %25
    i32 -9978, label %26
    i32 -9977, label %27
    i32 -9976, label %28
    i32 -9975, label %29
  ]

5:                                                ; preds = %1
  store ptr @.str, ptr %2, align 8
  br label %31

6:                                                ; preds = %1
  store ptr @.str.1, ptr %2, align 8
  br label %31

7:                                                ; preds = %1
  store ptr @.str.2, ptr %2, align 8
  br label %31

8:                                                ; preds = %1
  store ptr @.str.3, ptr %2, align 8
  br label %31

9:                                                ; preds = %1
  store ptr @.str.4, ptr %2, align 8
  br label %31

10:                                               ; preds = %1
  store ptr @.str.5, ptr %2, align 8
  br label %31

11:                                               ; preds = %1
  store ptr @.str.6, ptr %2, align 8
  br label %31

12:                                               ; preds = %1
  store ptr @.str.7, ptr %2, align 8
  br label %31

13:                                               ; preds = %1
  store ptr @.str.8, ptr %2, align 8
  br label %31

14:                                               ; preds = %1
  store ptr @.str.9, ptr %2, align 8
  br label %31

15:                                               ; preds = %1
  store ptr @.str.10, ptr %2, align 8
  br label %31

16:                                               ; preds = %1
  store ptr @.str.11, ptr %2, align 8
  br label %31

17:                                               ; preds = %1
  store ptr @.str.12, ptr %2, align 8
  br label %31

18:                                               ; preds = %1
  store ptr @.str.13, ptr %2, align 8
  br label %31

19:                                               ; preds = %1
  store ptr @.str.14, ptr %2, align 8
  br label %31

20:                                               ; preds = %1
  store ptr @.str.15, ptr %2, align 8
  br label %31

21:                                               ; preds = %1
  store ptr @.str.16, ptr %2, align 8
  br label %31

22:                                               ; preds = %1
  store ptr @.str.17, ptr %2, align 8
  br label %31

23:                                               ; preds = %1
  store ptr @.str.18, ptr %2, align 8
  br label %31

24:                                               ; preds = %1
  store ptr @.str.19, ptr %2, align 8
  br label %31

25:                                               ; preds = %1
  store ptr @.str.20, ptr %2, align 8
  br label %31

26:                                               ; preds = %1
  store ptr @.str.21, ptr %2, align 8
  br label %31

27:                                               ; preds = %1
  store ptr @.str.22, ptr %2, align 8
  br label %31

28:                                               ; preds = %1
  store ptr @.str.23, ptr %2, align 8
  br label %31

29:                                               ; preds = %1
  store ptr @.str.24, ptr %2, align 8
  br label %31

30:                                               ; preds = %1
  store ptr @.str.25, ptr %2, align 8
  br label %31

31:                                               ; preds = %30, %29, %28, %27, %26, %25, %24, %23, %22, %21, %20, %19, %18, %17, %16, %15, %14, %13, %12, %11, %10, %9, %8, %7, %6, %5
  %32 = load ptr, ptr %2, align 8
  ret ptr %32
}